; Function Attrs: mustprogress nofree norecurse nosync nounwind willreturn memory(read, argmem: write, inaccessiblemem: none) uwtable
define dso_local void @_ZN4llvm18TargetLoweringBase18setJumpIsExpensiveEb(ptr nocapture noundef nonnull writeonly align 8 dereferenceable(408123) %0, i1 noundef zeroext %1) local_unnamed_addr #9 align 2 {
  %3 = load i16, ptr getelementptr inbounds nuw (i8, ptr @_ZL23JumpIsExpensiveOverride, i64 8), align 8
  %.not = icmp eq i16 %3, 0
  br i1 %.not, label %4, label %7

4:                                                ; preds = %2
  %5 = zext i1 %1 to i8
  %6 = getelementptr inbounds nuw i8, ptr %0, i64 48
  store i8 %5, ptr %6, align 8
  br label %7

7:                                                ; preds = %4, %2
  ret void
}